Certificate Request:
    Data:
        Version: 0 (0x0)
        Subject: C=US, ST=CA, L=San Francisco, O=HashiCorp, Inc., OU=Terraform Engineering, CN=untrusted/emailAddress=hello@hashicorp.com
        Subject Public Key Info:
            Public Key Algorithm: rsaEncryption
                Public-Key: (4096 bit)
                Modulus:
                    00:ae:46:ba:58:c2:48:7f:3a:76:5a:48:50:07:71:
                    f7:ba:c1:da:7d:24:65:a4:44:2c:fd:21:8b:61:18:
                    ca:7b:60:44:3b:4c:a8:e5:00:7c:15:f1:b6:43:49:
                    ac:f2:7f:76:74:f6:6c:cd:1b:40:01:e0:a4:26:b4:
                    00:be:3c:63:dd:92:40:20:d7:ff:78:a2:22:ae:55:
                    55:45:52:5a:98:b0:5c:9c:65:d0:ad:50:5b:7c:08:
                    e5:6b:1a:9c:f5:71:87:97:f9:a4:c1:a6:82:9b:20:
                    a9:36:52:bc:a5:cc:28:14:6f:61:f1:40:18:b8:06:
                    f9:fa:52:24:65:9c:48:36:57:25:cd:3d:5b:b8:63:
                    c1:7e:0f:6b:0e:a5:4f:20:79:5b:85:5f:1c:18:6b:
                    c3:96:b7:17:be:98:1f:51:7b:7e:69:9c:50:a0:65:
                    20:4e:e8:73:79:68:20:5c:b6:d2:d5:1e:d3:a4:cb:
                    69:72:b9:af:b6:63:8a:90:01:59:f4:90:83:3c:02:
                    80:10:8e:0b:8b:17:5a:f7:48:4e:f4:8f:a6:8e:48:
                    25:a2:a9:a7:d0:d3:e0:80:ea:df:05:2b:3e:f0:3d:
                    4b:2b:3e:bb:fb:cf:2f:22:23:f6:2a:9b:6d:07:55:
                    2d:84:d3:71:c9:e5:0a:f1:f4:5c:7b:7f:59:b2:1d:
                    9b:d1:4d:e6:0e:88:b1:60:86:c3:65:e1:15:cf:81:
                    9b:06:06:c1:9d:98:fb:69:df:31:10:26:6b:eb:63:
                    9a:cb:6e:ca:e3:ff:f8:cf:4a:dd:84:46:32:7b:cc:
                    a8:70:bd:64:d8:29:d1:7b:91:46:4e:1c:ea:34:49:
                    c1:c2:c3:14:fc:0f:37:d1:6a:e5:17:e5:87:bc:cf:
                    c8:e6:32:e5:92:ca:96:20:85:65:45:3d:78:be:7a:
                    dc:46:1d:cd:58:78:6a:f2:59:95:0f:5a:f7:b2:98:
                    e3:e7:62:e8:23:c6:b1:01:f4:1a:38:a4:d5:2a:a6:
                    3f:e6:5e:42:8f:15:f5:d8:6a:8a:f0:32:3a:51:ee:
                    ae:36:27:02:82:c0:e2:f7:31:45:69:25:85:16:29:
                    06:e0:aa:43:0a:8a:96:37:5e:a5:c0:7c:62:1d:3c:
                    cf:42:a1:13:b8:b6:87:cd:52:91:c0:5b:84:a6:cf:
                    1d:2d:67:ab:98:c6:72:17:98:38:59:40:5d:62:13:
                    ae:74:a9:d2:cc:50:cf:53:b2:cb:50:b4:eb:80:06:
                    55:1f:e0:c6:e2:f0:2e:d2:f8:11:b8:29:57:6f:fe:
                    7e:25:85:15:77:d6:01:46:fe:6c:50:9c:76:93:89:
                    0f:34:bc:b5:e9:90:de:c5:3b:98:54:5d:42:15:a4:
                    ab:dd:c9
                Exponent: 65537 (0x10001)
        Attributes:
            a0:00
    Signature Algorithm: sha1WithRSAEncryption
         01:6a:42:32:bb:e7:10:bc:94:af:c9:a8:dd:55:fe:af:66:27:
         98:db:02:27:ec:1a:cf:89:10:02:3d:dd:c5:cd:51:fd:88:30:
         42:31:33:3d:13:20:5f:cc:10:1d:cf:37:40:4d:ca:7f:08:ae:
         e8:bf:e1:09:88:b6:f8:bc:93:d5:0e:aa:35:55:30:71:17:21:
         8a:c7:ff:bc:ee:70:ae:c7:4c:12:35:94:e8:64:8d:b0:e8:02:
         0d:ce:b1:2a:f8:3f:b3:c7:fa:25:b1:96:96:3c:03:4e:12:db:
         b0:85:02:07:4e:41:88:7e:21:ff:ca:4f:3e:ff:37:62:a6:49:
         00:47:23:4b:d5:67:4f:4d:f7:cc:72:17:d5:0b:9e:32:24:e2:
         a5:0f:73:e0:c1:78:1e:0a:35:3a:d7:05:d2:79:e1:56:66:3e:
         1b:1f:01:e0:e3:84:5c:d7:65:2a:7e:0f:fc:9a:48:6e:94:e3:
         87:ed:36:24:2f:b4:49:41:d0:49:80:53:3e:78:6c:40:7e:5c:
         09:0e:3e:2e:1d:9a:d6:c3:f2:c6:dd:be:9e:ac:19:39:d9:25:
         55:bd:67:d4:58:35:47:bd:0f:ad:d5:48:f1:70:3a:8b:49:79:
         a9:88:e2:35:be:98:46:64:1e:e2:d0:ef:2a:e1:bd:77:58:90:
         31:7b:24:49:1e:33:ff:7a:ac:a7:92:bd:de:fd:8c:13:0f:fb:
         65:ab:46:83:5d:82:05:16:67:96:98:c6:9e:d5:a7:d6:50:e6:
         a9:1e:ff:95:e6:b2:07:53:04:63:fa:bd:a6:3b:eb:03:62:1e:
         69:2c:c3:58:a2:3a:3c:d4:35:0f:33:1a:d3:5e:53:f2:8a:f9:
         17:11:12:d7:86:ca:4a:41:94:23:7e:fb:ba:b0:ef:ce:7f:9d:
         fe:26:db:08:fd:d0:63:4d:7c:a9:46:9a:b4:97:01:47:5f:77:
         50:72:c8:85:27:74:e7:e6:c5:6e:43:27:c4:14:57:dc:e1:42:
         73:e1:58:e6:df:52:51:ec:f6:9b:08:7c:73:a3:15:f2:d0:4a:
         21:5a:0d:c2:e1:11:85:a9:f4:a8:c9:95:e6:99:df:f5:87:c1:
         59:ab:1d:5d:ad:bc:30:d2:67:91:38:e1:4a:6a:ca:6a:91:88:
         80:f9:27:19:99:2f:31:ba:84:3b:15:c7:28:d4:28:c0:9b:f4:
         80:48:f7:86:bb:fc:92:1e:00:3f:0e:3c:f7:b7:d4:5d:f5:7a:
         59:aa:27:37:d8:5e:70:cf:51:26:b7:09:07:35:84:14:22:ab:
         09:a2:d9:df:ac:e6:d4:a3:cf:29:91:22:20:79:22:ac:e3:f4:
         f1:f0:c7:2c:42:95:81:52
-----BEGIN CERTIFICATE REQUEST-----
MIIE6jCCAtICAQAwgaQxCzAJBgNVBAYTAlVTMQswCQYDVQQIDAJDQTEWMBQGA1UE
BwwNU2FuIEZyYW5jaXNjbzEYMBYGA1UECgwPSGFzaGlDb3JwLCBJbmMuMR4wHAYD
VQQLDBVUZXJyYWZvcm0gRW5naW5lZXJpbmcxEjAQBgNVBAMMCXVudHJ1c3RlZDEi
MCAGCSqGSIb3DQEJARYTaGVsbG9AaGFzaGljb3JwLmNvbTCCAiIwDQYJKoZIhvcN
AQEBBQADggIPADCCAgoCggIBAK5GuljCSH86dlpIUAdx97rB2n0kZaRELP0hi2EY
yntgRDtMqOUAfBXxtkNJrPJ/dnT2bM0bQAHgpCa0AL48Y92SQCDX/3iiIq5VVUVS
WpiwXJxl0K1QW3wI5WsanPVxh5f5pMGmgpsgqTZSvKXMKBRvYfFAGLgG+fpSJGWc
SDZXJc09W7hjwX4Paw6lTyB5W4VfHBhrw5a3F76YH1F7fmmcUKBlIE7oc3loIFy2
0tUe06TLaXK5r7ZjipABWfSQgzwCgBCOC4sXWvdITvSPpo5IJaKpp9DT4IDq3wUr
PvA9Sys+u/vPLyIj9iqbbQdVLYTTccnlCvH0XHt/WbIdm9FN5g6IsWCGw2XhFc+B
mwYGwZ2Y+2nfMRAma+tjmstuyuP/+M9K3YRGMnvMqHC9ZNgp0XuRRk4c6jRJwcLD
FPwPN9Fq5Rflh7zPyOYy5ZLKliCFZUU9eL563EYdzVh4avJZlQ9a97KY4+di6CPG
sQH0Gjik1SqmP+ZeQo8V9dhqivAyOlHurjYnAoLA4vcxRWklhRYpBuCqQwqKljde
pcB8Yh08z0KhE7i2h81SkcBbhKbPHS1nq5jGcheYOFlAXWITrnSp0sxQz1Oyy1C0
64AGVR/gxuLwLtL4EbgpV2/+fiWFFXfWAUb+bFCcdpOJDzS8temQ3sU7mFRdQhWk
q93JAgMBAAGgADANBgkqhkiG9w0BAQUFAAOCAgEAAWpCMrvnELyUr8mo3VX+r2Yn
mNsCJ+waz4kQAj3dxc1R/YgwQjEzPRMgX8wQHc83QE3Kfwiu6L/hCYi2+LyT1Q6q
NVUwcRchisf/vO5wrsdMEjWU6GSNsOgCDc6xKvg/s8f6JbGWljwDThLbsIUCB05B
iH4h/8pPPv83YqZJAEcjS9VnT033zHIX1QueMiTipQ9z4MF4Hgo1OtcF0nnhVmY+
Gx8B4OOEXNdlKn4P/JpIbpTjh+02JC+0SUHQSYBTPnhsQH5cCQ4+Lh2a1sPyxt2+
nqwZOdklVb1n1Fg1R70PrdVI8XA6i0l5qYjiNb6YRmQe4tDvKuG9d1iQMXskSR4z
/3qsp5K93v2MEw/7ZatGg12CBRZnlpjGntWn1lDmqR7/leayB1MEY/q9pjvrA2Ie
aSzDWKI6PNQ1DzMa015T8or5FxES14bKSkGUI377urDvzn+d/ibbCP3QY018qUaa
tJcBR193UHLIhSd05+bFbkMnxBRX3OFCc+FY5t9SUez2mwh8c6MV8tBKIVoNwuER
han0qMmV5pnf9YfBWasdXa28MNJnkTjhSmrKapGIgPknGZkvMbqEOxXHKNQowJv0
gEj3hrv8kh4APw4897fUXfV6WaonN9hecM9RJrcJBzWEFCKrCaLZ36zm1KPPKZEi
IHkirOP08fDHLEKVgVI=
-----END CERTIFICATE REQUEST-----
